target datalayout = "e-m:e-p270:32:32-p271:32:32-p272:64:64-i64:64-i128:128-f80:128-n8:16:32:64-S128"
target triple = "x86_64-pc-linux-gnu"

%"struct.ncnn::layer_registry_entry" = type { ptr, ptr }
%"class.ncnn::Layer" = type { ptr, i8, i8, i8, i8, i8, i8, i8, i8, i8, i8, i8, i8, i8, i8, i8, i8, i8, i8, i8, i8, i32, ptr, i32, %"class.std::__cxx11::basic_string", %"class.std::__cxx11::basic_string", %"class.std::vector", %"class.std::vector", %"class.std::vector.3", %"class.std::vector.3" }
%"class.std::__cxx11::basic_string" = type { %"struct.std::__cxx11::basic_string<char>::_Alloc_hider", i64, %union.anon }
%"struct.std::__cxx11::basic_string<char>::_Alloc_hider" = type { ptr }
%union.anon = type { i64, [8 x i8] }
%"class.std::vector" = type { %"struct.std::_Vector_base" }
%"struct.std::_Vector_base" = type { %"struct.std::_Vector_base<int, std::allocator<int>>::_Vector_impl" }
%"struct.std::_Vector_base<int, std::allocator<int>>::_Vector_impl" = type { %"struct.std::_Vector_base<int, std::allocator<int>>::_Vector_impl_data" }
%"struct.std::_Vector_base<int, std::allocator<int>>::_Vector_impl_data" = type { ptr, ptr, ptr }
%"class.std::vector.3" = type { %"struct.std::_Vector_base.4" }
%"struct.std::_Vector_base.4" = type { %"struct.std::_Vector_base<ncnn::Mat, std::allocator<ncnn::Mat>>::_Vector_impl" }
%"struct.std::_Vector_base<ncnn::Mat, std::allocator<ncnn::Mat>>::_Vector_impl" = type { %"struct.std::_Vector_base<ncnn::Mat, std::allocator<ncnn::Mat>>::_Vector_impl_data" }
%"struct.std::_Vector_base<ncnn::Mat, std::allocator<ncnn::Mat>>::_Vector_impl_data" = type { ptr, ptr, ptr }

; Function Attrs: mustprogress uwtable
define hidden noundef ptr @_ZN4ncnn16create_layer_cpuEi(i32 noundef %0) #1 {
  %2 = alloca ptr, align 8
  %3 = alloca i32, align 4
  %4 = alloca ptr, align 8
  %5 = alloca i32, align 4
  %6 = alloca ptr, align 8
  store i32 %0, ptr %3, align 4, !tbaa !37
  %7 = load i32, ptr %3, align 4, !tbaa !37
  %8 = icmp slt i32 %7, 0
  br i1 %8, label %12, label %9

9:                                                ; preds = %1
  %10 = load i32, ptr %3, align 4, !tbaa !37
  %11 = icmp sge i32 %10, 107
  br i1 %11, label %12, label %13

12:                                               ; preds = %9, %1
  store ptr null, ptr %2, align 8
  br label %69

13:                                               ; preds = %9
  call void @llvm.lifetime.start.p0(i64 8, ptr %4) #16
  store ptr null, ptr %4, align 8, !tbaa !46
  %14 = call noundef i32 @_ZN4ncnn22cpu_support_x86_avx512Ev()
  %15 = icmp ne i32 %14, 0
  br i1 %15, label %16, label %22

16:                                               ; preds = %13
  %17 = load i32, ptr %3, align 4, !tbaa !37
  %18 = sext i32 %17 to i64
  %19 = getelementptr inbounds [107 x %"struct.ncnn::layer_registry_entry"], ptr @_ZN4ncnnL21layer_registry_avx512E, i64 0, i64 %18
  %20 = getelementptr inbounds nuw %"struct.ncnn::layer_registry_entry", ptr %19, i32 0, i32 1
  %21 = load ptr, ptr %20, align 8, !tbaa !155
  store ptr %21, ptr %4, align 8, !tbaa !46
  br label %48

22:                                               ; preds = %13
  %23 = call noundef i32 @_ZN4ncnn19cpu_support_x86_fmaEv()
  %24 = icmp ne i32 %23, 0
  br i1 %24, label %25, label %31

25:                                               ; preds = %22
  %26 = load i32, ptr %3, align 4, !tbaa !37
  %27 = sext i32 %26 to i64
  %28 = getelementptr inbounds [107 x %"struct.ncnn::layer_registry_entry"], ptr @_ZN4ncnnL18layer_registry_fmaE, i64 0, i64 %27
  %29 = getelementptr inbounds nuw %"struct.ncnn::layer_registry_entry", ptr %28, i32 0, i32 1
  %30 = load ptr, ptr %29, align 8, !tbaa !155
  store ptr %30, ptr %4, align 8, !tbaa !46
  br label %47

31:                                               ; preds = %22
  %32 = call noundef i32 @_ZN4ncnn19cpu_support_x86_avxEv()
  %33 = icmp ne i32 %32, 0
  br i1 %33, label %34, label %40

34:                                               ; preds = %31
  %35 = load i32, ptr %3, align 4, !tbaa !37
  %36 = sext i32 %35 to i64
  %37 = getelementptr inbounds [107 x %"struct.ncnn::layer_registry_entry"], ptr @_ZN4ncnnL18layer_registry_avxE, i64 0, i64 %36
  %38 = getelementptr inbounds nuw %"struct.ncnn::layer_registry_entry", ptr %37, i32 0, i32 1
  %39 = load ptr, ptr %38, align 8, !tbaa !155
  store ptr %39, ptr %4, align 8, !tbaa !46
  br label %46

40:                                               ; preds = %31
  %41 = load i32, ptr %3, align 4, !tbaa !37
  %42 = sext i32 %41 to i64
  %43 = getelementptr inbounds [107 x %"struct.ncnn::layer_registry_entry"], ptr @_ZN4ncnnL19layer_registry_archE, i64 0, i64 %42
  %44 = getelementptr inbounds nuw %"struct.ncnn::layer_registry_entry", ptr %43, i32 0, i32 1
  %45 = load ptr, ptr %44, align 8, !tbaa !155
  store ptr %45, ptr %4, align 8, !tbaa !46
  br label %46

46:                                               ; preds = %40, %34
  br label %47

47:                                               ; preds = %46, %25
  br label %48

48:                                               ; preds = %47, %16
  %49 = load ptr, ptr %4, align 8, !tbaa !46
  %50 = icmp ne ptr %49, null
  br i1 %50, label %57, label %51

51:                                               ; preds = %48
  %52 = load i32, ptr %3, align 4, !tbaa !37
  %53 = sext i32 %52 to i64
  %54 = getelementptr inbounds [107 x %"struct.ncnn::layer_registry_entry"], ptr @_ZN4ncnnL14layer_registryE, i64 0, i64 %53
  %55 = getelementptr inbounds nuw %"struct.ncnn::layer_registry_entry", ptr %54, i32 0, i32 1
  %56 = load ptr, ptr %55, align 8, !tbaa !155
  store ptr %56, ptr %4, align 8, !tbaa !46
  br label %57

57:                                               ; preds = %51, %48
  %58 = load ptr, ptr %4, align 8, !tbaa !46
  %59 = icmp ne ptr %58, null
  br i1 %59, label %61, label %60

60:                                               ; preds = %57
  store ptr null, ptr %2, align 8
  store i32 1, ptr %5, align 4
  br label %68

61:                                               ; preds = %57
  call void @llvm.lifetime.start.p0(i64 8, ptr %6) #16
  %62 = load ptr, ptr %4, align 8, !tbaa !46
  %63 = call noundef ptr %62(ptr noundef null)
  store ptr %63, ptr %6, align 8, !tbaa !4
  %64 = load i32, ptr %3, align 4, !tbaa !37
  %65 = load ptr, ptr %6, align 8, !tbaa !4
  %66 = getelementptr inbounds nuw %"class.ncnn::Layer", ptr %65, i32 0, i32 23
  store i32 %64, ptr %66, align 8, !tbaa !72
  %67 = load ptr, ptr %6, align 8, !tbaa !4
  store ptr %67, ptr %2, align 8
  store i32 1, ptr %5, align 4
  call void @llvm.lifetime.end.p0(i64 8, ptr %6) #16
  br label %68

68:                                               ; preds = %61, %60
  call void @llvm.lifetime.end.p0(i64 8, ptr %4) #16
  br label %69

69:                                               ; preds = %68, %12
  %70 = load ptr, ptr %2, align 8
  ret ptr %70
}

; Function Attrs: mustprogress nounwind uwtable
define hidden noundef i32 @_ZN4ncnn14layer_to_indexEPKc(ptr noundef %0) #0 {
  %2 = alloca i32, align 4
  %3 = alloca ptr, align 8
  %4 = alloca i32, align 4
  %5 = alloca i32, align 4
  store ptr %0, ptr %3, align 8, !tbaa !82
  call void @llvm.lifetime.start.p0(i64 4, ptr %4) #16
  store i32 0, ptr %4, align 4, !tbaa !37
  br label %6

6:                                                ; preds = %22, %1
  %7 = load i32, ptr %4, align 4, !tbaa !37
  %8 = icmp slt i32 %7, 107
  br i1 %8, label %10, label %9

9:                                                ; preds = %6
  store i32 2, ptr %5, align 4
  br label %25

10:                                               ; preds = %6
  %11 = load ptr, ptr %3, align 8, !tbaa !82
  %12 = load i32, ptr %4, align 4, !tbaa !37
  %13 = sext i32 %12 to i64
  %14 = getelementptr inbounds [107 x %"struct.ncnn::layer_registry_entry"], ptr @_ZN4ncnnL14layer_registryE, i64 0, i64 %13
  %15 = getelementptr inbounds nuw %"struct.ncnn::layer_registry_entry", ptr %14, i32 0, i32 0
  %16 = load ptr, ptr %15, align 16, !tbaa !148
  %17 = call i32 @strcmp(ptr noundef %11, ptr noundef %16) #21
  %18 = icmp eq i32 %17, 0
  br i1 %18, label %19, label %21

19:                                               ; preds = %10
  %20 = load i32, ptr %4, align 4, !tbaa !37
  store i32 %20, ptr %2, align 4
  store i32 1, ptr %5, align 4
  br label %25

21:                                               ; preds = %10
  br label %22

22:                                               ; preds = %21
  %23 = load i32, ptr %4, align 4, !tbaa !37
  %24 = add nsw i32 %23, 1
  store i32 %24, ptr %4, align 4, !tbaa !37
  br label %6, !llvm.loop !150

25:                                               ; preds = %19, %9
  call void @llvm.lifetime.end.p0(i64 4, ptr %4) #16
  %26 = load i32, ptr %5, align 4
  switch i32 %26, label %30 [
    i32 2, label %27
    i32 1, label %28
  ]

27:                                               ; preds = %25
  store i32 -1, ptr %2, align 4
  br label %28

28:                                               ; preds = %27, %25
  %29 = load i32, ptr %2, align 4
  ret i32 %29

30:                                               ; preds = %25
  unreachable
}

; Function Attrs: mustprogress uwtable
define hidden noundef ptr @_ZN4ncnn16create_layer_cpuEPKc(ptr noundef %0) #1 {
  %2 = alloca ptr, align 8
  %3 = alloca ptr, align 8
  %4 = alloca i32, align 4
  %5 = alloca i32, align 4
  store ptr %0, ptr %3, align 8, !tbaa !82
  call void @llvm.lifetime.start.p0(i64 4, ptr %4) #16
  %6 = load ptr, ptr %3, align 8, !tbaa !82
  %7 = call noundef i32 @_ZN4ncnn14layer_to_indexEPKc(ptr noundef %6)
  store i32 %7, ptr %4, align 4, !tbaa !37
  %8 = load i32, ptr %4, align 4, !tbaa !37
  %9 = icmp eq i32 %8, -1
  br i1 %9, label %10, label %11

10:                                               ; preds = %1
  store ptr null, ptr %2, align 8
  store i32 1, ptr %5, align 4
  br label %14

11:                                               ; preds = %1
  %12 = load i32, ptr %4, align 4, !tbaa !37
  %13 = call noundef ptr @_ZN4ncnn16create_layer_cpuEi(i32 noundef %12)
  store ptr %13, ptr %2, align 8
  store i32 1, ptr %5, align 4
  br label %14

14:                                               ; preds = %11, %10
  call void @llvm.lifetime.end.p0(i64 4, ptr %4) #16
  %15 = load ptr, ptr %2, align 8
  ret ptr %15
}