; Function Attrs: mustprogress uwtable
define hidden noundef ptr @_ZN4ncnn16create_layer_cpuEPKc(ptr noundef readonly captures(none) %0) local_unnamed_addr #2 {
  br label %2

2:                                                ; preds = %7, %1
  %indvars.iv.i = phi i64 [ 0, %1 ], [ %indvars.iv.next.i, %7 ]
  %3 = getelementptr inbounds nuw [107 x %"struct.ncnn::layer_registry_entry"], ptr @_ZN4ncnnL14layer_registryE, i64 0, i64 %indvars.iv.i
  %4 = load ptr, ptr %3, align 16, !tbaa !65
  %5 = tail call i32 @strcmp(ptr noundef nonnull readonly dereferenceable(1) %0, ptr noundef nonnull dereferenceable(1) %4) #23
  %6 = icmp eq i32 %5, 0
  br i1 %6, label %_ZN4ncnn14layer_to_indexEPKc.exit, label %7

7:                                                ; preds = %2
  %indvars.iv.next.i = add nuw nsw i64 %indvars.iv.i, 1
  %exitcond.i = icmp eq i64 %indvars.iv.next.i, 107
  br i1 %exitcond.i, label %_ZN4ncnn16create_layer_cpuEi.exit, label %2, !llvm.loop !67

_ZN4ncnn14layer_to_indexEPKc.exit:                ; preds = %2
  %8 = trunc nuw nsw i64 %indvars.iv.i to i32
  %or.cond.i = icmp samesign ugt i64 %indvars.iv.i, 106
  br i1 %or.cond.i, label %_ZN4ncnn16create_layer_cpuEi.exit, label %9

9:                                                ; preds = %_ZN4ncnn14layer_to_indexEPKc.exit
  %10 = tail call noundef i32 @_ZN4ncnn22cpu_support_x86_avx512Ev()
  %.not.i = icmp eq i32 %10, 0
  br i1 %.not.i, label %11, label %15

11:                                               ; preds = %9
  %12 = tail call noundef i32 @_ZN4ncnn19cpu_support_x86_fmaEv()
  %.not17.i = icmp eq i32 %12, 0
  br i1 %.not17.i, label %13, label %15

13:                                               ; preds = %11
  %14 = tail call noundef i32 @_ZN4ncnn19cpu_support_x86_avxEv()
  %.not18.i = icmp eq i32 %14, 0
  %_ZN4ncnnL19layer_registry_archE._ZN4ncnnL18layer_registry_avxE = select i1 %.not18.i, ptr @_ZN4ncnnL19layer_registry_archE, ptr @_ZN4ncnnL18layer_registry_avxE
  br label %15

15:                                               ; preds = %13, %11, %9
  %_ZN4ncnnL19layer_registry_archE.sink = phi ptr [ @_ZN4ncnnL21layer_registry_avx512E, %9 ], [ @_ZN4ncnnL18layer_registry_fmaE, %11 ], [ %_ZN4ncnnL19layer_registry_archE._ZN4ncnnL18layer_registry_avxE, %13 ]
  %16 = getelementptr inbounds nuw [107 x %"struct.ncnn::layer_registry_entry"], ptr %_ZN4ncnnL19layer_registry_archE.sink, i64 0, i64 %indvars.iv.i, i32 1
  %.014.i = load ptr, ptr %16, align 8, !tbaa !68
  %.not19.i = icmp eq ptr %.014.i, null
  br i1 %.not19.i, label %17, label %.thread.i

17:                                               ; preds = %15
  %18 = getelementptr inbounds nuw [107 x %"struct.ncnn::layer_registry_entry"], ptr @_ZN4ncnnL14layer_registryE, i64 0, i64 %indvars.iv.i, i32 1
  %19 = load ptr, ptr %18, align 8, !tbaa !68
  switch i32 %8, label %.thread.i [
    i32 34, label %_ZN4ncnn16create_layer_cpuEi.exit
    i32 1, label %_ZN4ncnn16create_layer_cpuEi.exit
  ]

.thread.i:                                        ; preds = %17, %15
  %.11523.i = phi ptr [ %19, %17 ], [ %.014.i, %15 ]
  %20 = tail call noundef ptr %.11523.i(ptr noundef null)
  %21 = getelementptr inbounds nuw i8, ptr %20, i64 40
  store i32 %8, ptr %21, align 8, !tbaa !51
  br label %_ZN4ncnn16create_layer_cpuEi.exit

_ZN4ncnn16create_layer_cpuEi.exit:                ; preds = %7, %.thread.i, %17, %17, %_ZN4ncnn14layer_to_indexEPKc.exit
  %.0 = phi ptr [ null, %_ZN4ncnn14layer_to_indexEPKc.exit ], [ %20, %.thread.i ], [ null, %17 ], [ null, %17 ], [ null, %7 ]
  ret ptr %.0
}